; Function Attrs: nounwind uwtable
define internal noundef i32 @H5B2__test_dst_context(ptr noundef %0) #0 {
  %2 = load i8, ptr @H5B2_init_g, align 1, !tbaa !3, !range !7, !noundef !8
  %3 = trunc nuw i8 %2 to i1
  %4 = load i8, ptr @H5_libterm_g, align 1, !range !7
  %5 = trunc nuw i8 %4 to i1
  %6 = xor i1 %5, true
  %7 = select i1 %3, i1 true, i1 %6
  br i1 %7, label %8, label %10, !prof !9

8:                                                ; preds = %1
  %9 = tail call ptr @H5FL_reg_free(ptr noundef nonnull @H5_H5B2_test_ctx_t_reg_free_list, ptr noundef %0) #8
  br label %10

10:                                               ; preds = %8, %1
  ret i32 0
}